target datalayout = "e-m:e-p270:32:32-p271:32:32-p272:64:64-i64:64-i128:128-f80:128-n8:16:32:64-S128"
target triple = "x86_64-pc-linux-gnu"

%struct.xcgroup_t = type { ptr, ptr, ptr, i32, i32, i32 }
%struct.slurm_conf_t = type { i64, ptr, i16, ptr, ptr, ptr, ptr, ptr, i16, ptr, ptr, ptr, ptr, ptr, ptr, ptr, i16, ptr, ptr, ptr, ptr, i16, ptr, ptr, ptr, i64, ptr, ptr, ptr, ptr, i16, ptr, ptr, i16, i32, ptr, i32, ptr, i32, i32, ptr, ptr, i64, i64, ptr, i16, i16, ptr, i32, i32, ptr, i32, ptr, i32, i16, i16, i16, ptr, i16, i16, ptr, ptr, i32, i16, i16, ptr, i32, i16, ptr, ptr, ptr, ptr, i16, ptr, ptr, ptr, ptr, i32, ptr, ptr, ptr, ptr, i16, i16, ptr, i32, i32, i32, i16, i16, ptr, ptr, i16, ptr, ptr, i32, i32, i32, i32, i32, i64, i32, i32, i16, ptr, ptr, i32, ptr, ptr, ptr, i16, i32, ptr, ptr, i16, ptr, ptr, i32, i16, ptr, ptr, ptr, ptr, i32, i32, i16, i16, i32, ptr, i16, ptr, i32, i32, i32, i32, i32, i32, ptr, i16, ptr, ptr, i32, i16, ptr, i32, i16, i16, ptr, ptr, ptr, i16, ptr, ptr, ptr, ptr, i16, i16, ptr, i16, ptr, i16, ptr, i16, ptr, i16, ptr, ptr, ptr, ptr, i16, ptr, ptr, ptr, i32, ptr, i32, ptr, ptr, i16, ptr, ptr, i32, i16, ptr, ptr, i16, i16, ptr, i16, ptr, ptr, ptr, i32, ptr, i16, i16, ptr, ptr, ptr, ptr, ptr, ptr, ptr, ptr, i16, i32, i16, ptr, ptr, ptr, ptr, i32, ptr, ptr, ptr, i16, ptr, ptr, ptr, i16, ptr, i16, ptr, i16, i16, ptr }
%struct.bpf_program = type { i64, i64, ptr }
%struct.task_cg_info_t = type { %struct.xcgroup_t, i32, %struct.bpf_program }

@plugin_type = dso_local constant [10 x i8] c"cgroup/v2\00", align 1
@slurm_conf = external global %struct.slurm_conf_t, align 8
@.str.211 = private unnamed_addr constant [41 x i8] c"%s: %s: CGROUP: Failed to cleanup %s: %m\00", align 1
@__func__._find_purge_task_special = private unnamed_addr constant [25 x i8] c"_find_purge_task_special\00", align 1

; Function Attrs: nounwind uwtable
define internal i32 @_find_purge_task_special(ptr noundef %0, ptr noundef %1) #0 {
  %3 = alloca i32, align 4
  %4 = alloca ptr, align 8
  %5 = alloca ptr, align 8
  store ptr %0, ptr %4, align 8
  store ptr %1, ptr %5, align 8
  %6 = load ptr, ptr %4, align 8
  %7 = getelementptr inbounds nuw %struct.task_cg_info_t, ptr %6, i32 0, i32 1
  %8 = load i32, ptr %7, align 8
  %9 = load ptr, ptr %5, align 8
  %10 = load i32, ptr %9, align 4
  %11 = icmp eq i32 %8, %10
  br i1 %11, label %12, label %36

12:                                               ; preds = %2
  %13 = load ptr, ptr %4, align 8
  %14 = getelementptr inbounds nuw %struct.task_cg_info_t, ptr %13, i32 0, i32 0
  %15 = call i32 @common_cgroup_delete(ptr noundef %14)
  %16 = icmp ne i32 %15, 0
  br i1 %16, label %17, label %35

17:                                               ; preds = %12
  br label %18

18:                                               ; preds = %17
  %19 = load i64, ptr getelementptr inbounds nuw (%struct.slurm_conf_t, ptr @slurm_conf, i32 0, i32 42), align 8
  %20 = and i64 %19, 36028797018963968
  %21 = icmp ne i64 %20, 0
  br i1 %21, label %22, label %33

22:                                               ; preds = %18
  br label %23

23:                                               ; preds = %22
  %24 = call i32 @get_log_level()
  %25 = icmp sge i32 %24, 4
  br i1 %25, label %26, label %31

26:                                               ; preds = %23
  %27 = load ptr, ptr %4, align 8
  %28 = getelementptr inbounds nuw %struct.task_cg_info_t, ptr %27, i32 0, i32 0
  %29 = getelementptr inbounds nuw %struct.xcgroup_t, ptr %28, i32 0, i32 2
  %30 = load ptr, ptr %29, align 8
  call void (i32, ptr, ...) @log_var(i32 noundef 4, ptr noundef @.str.211, ptr noundef @plugin_type, ptr noundef @__func__._find_purge_task_special, ptr noundef %30)
  br label %31

31:                                               ; preds = %26, %23
  br label %32

32:                                               ; preds = %31
  br label %33

33:                                               ; preds = %32, %18
  br label %34

34:                                               ; preds = %33
  br label %35

35:                                               ; preds = %34, %12
  store i32 1, ptr %3, align 4
  br label %37

36:                                               ; preds = %2
  store i32 0, ptr %3, align 4
  br label %37

37:                                               ; preds = %36, %35
  %38 = load i32, ptr %3, align 4
  ret i32 %38
}