; Function Attrs: nounwind uwtable
define internal range(i32 0, 2) i32 @_find_purge_task_special(ptr noundef %0, ptr noundef readonly captures(none) %1) #0 {
  %3 = getelementptr inbounds nuw i8, ptr %0, i64 40
  %4 = load i32, ptr %3, align 8
  %5 = load i32, ptr %1, align 4
  %6 = icmp eq i32 %4, %5
  br i1 %6, label %7, label %18

7:                                                ; preds = %2
  %8 = tail call i32 @common_cgroup_delete(ptr noundef nonnull %0) #17
  %.not = icmp eq i32 %8, 0
  br i1 %.not, label %18, label %9

9:                                                ; preds = %7
  %10 = load i64, ptr getelementptr inbounds nuw (i8, ptr @slurm_conf, i64 320), align 8
  %11 = and i64 %10, 36028797018963968
  %.not4 = icmp eq i64 %11, 0
  br i1 %.not4, label %18, label %12

12:                                               ; preds = %9
  %13 = tail call i32 @get_log_level() #17
  %14 = icmp sgt i32 %13, 3
  br i1 %14, label %15, label %18

15:                                               ; preds = %12
  %16 = getelementptr inbounds nuw i8, ptr %0, i64 16
  %17 = load ptr, ptr %16, align 8
  tail call void (i32, ptr, ...) @log_var(i32 noundef 4, ptr noundef nonnull @.str.211, ptr noundef nonnull @plugin_type, ptr noundef nonnull @__func__._find_purge_task_special, ptr noundef %17) #17
  br label %18

18:                                               ; preds = %2, %7, %9, %12, %15
  %.0 = phi i32 [ 1, %15 ], [ 1, %12 ], [ 1, %9 ], [ 1, %7 ], [ 0, %2 ]
  ret i32 %.0
}